target datalayout = "e-m:e-p270:32:32-p271:32:32-p272:64:64-i64:64-i128:128-f80:128-n8:16:32:64-S128"
target triple = "x86_64-pc-linux-gnu"

%class.LogTagSet = type { ptr, i64, [5 x i32], [4 x i8], %class.LogOutputList, %class.LogDecorators, ptr }
%class.LogOutputList = type <{ [6 x ptr], i32, [4 x i8] }>
%class.LogDecorators = type { i32 }
%class.PSOldGen = type { ptr, ptr, %class.ObjectStartArray, ptr, ptr, ptr, i64, i64 }
%class.ObjectStartArray = type { [8 x i8], %class.PSVirtualSpace, ptr }
%class.PSVirtualSpace = type <{ ptr, i64, ptr, ptr, ptr, ptr, i8, [7 x i8] }>

@MinHeapDeltaBytes = external global i64, align 8
@UseNUMA = external global i8, align 1
@.str.8 = private unnamed_addr constant [51 x i8] c"Garbage collection disabled, expanded heap instead\00", align 1
@_ZN16LogTagSetMappingILN6LogTag4typeE49ELS1_0ELS1_0ELS1_0ELS1_0ELS1_0EE7_tagsetE = linkonce_odr hidden global %class.LogTagSet zeroinitializer, comdat, align 8
@_ZN8GCLocker9_needs_gcE = external global i8, align 1
@_ZN8GCLocker15_jni_lock_countE = external global i32, align 4

; Function Attrs: mustprogress nounwind uwtable
define linkonce_odr hidden noundef ptr @_ZNK14PSVirtualSpace18committed_low_addrEv(ptr noundef nonnull align 8 dereferenceable(49) %0) #1 comdat align 2 {
  %2 = alloca ptr, align 8
  store ptr %0, ptr %2, align 8
  %3 = load ptr, ptr %2, align 8
  %4 = getelementptr inbounds %class.PSVirtualSpace, ptr %3, i32 0, i32 4
  %5 = load ptr, ptr %4, align 8
  ret ptr %5
}

; Function Attrs: mustprogress nounwind uwtable
define linkonce_odr hidden noundef ptr @_ZNK14PSVirtualSpace19committed_high_addrEv(ptr noundef nonnull align 8 dereferenceable(49) %0) #1 comdat align 2 {
  %2 = alloca ptr, align 8
  store ptr %0, ptr %2, align 8
  %3 = load ptr, ptr %2, align 8
  %4 = getelementptr inbounds %class.PSVirtualSpace, ptr %3, i32 0, i32 5
  %5 = load ptr, ptr %4, align 8
  ret ptr %5
}

; Function Attrs: mustprogress nounwind uwtable
define linkonce_odr hidden noundef i64 @_Z13pointer_deltaPVKvS0_m(ptr noundef %0, ptr noundef %1, i64 noundef %2) #1 comdat {
  %4 = alloca ptr, align 8
  %5 = alloca ptr, align 8
  %6 = alloca i64, align 8
  store ptr %0, ptr %4, align 8
  store ptr %1, ptr %5, align 8
  store i64 %2, ptr %6, align 8
  %7 = load ptr, ptr %4, align 8
  %8 = ptrtoint ptr %7 to i64
  %9 = load ptr, ptr %5, align 8
  %10 = ptrtoint ptr %9 to i64
  %11 = sub i64 %8, %10
  %12 = load i64, ptr %6, align 8
  %13 = udiv i64 %11, %12
  ret i64 %13
}

; Function Attrs: mustprogress nounwind uwtable
define linkonce_odr hidden noundef ptr @_ZNK14PSVirtualSpace17reserved_low_addrEv(ptr noundef nonnull align 8 dereferenceable(49) %0) #1 comdat align 2 {
  %2 = alloca ptr, align 8
  store ptr %0, ptr %2, align 8
  %3 = load ptr, ptr %2, align 8
  %4 = getelementptr inbounds %class.PSVirtualSpace, ptr %3, i32 0, i32 2
  %5 = load ptr, ptr %4, align 8
  ret ptr %5
}

; Function Attrs: mustprogress nounwind uwtable
define linkonce_odr hidden noundef ptr @_ZNK14PSVirtualSpace18reserved_high_addrEv(ptr noundef nonnull align 8 dereferenceable(49) %0) #1 comdat align 2 {
  %2 = alloca ptr, align 8
  store ptr %0, ptr %2, align 8
  %3 = load ptr, ptr %2, align 8
  %4 = getelementptr inbounds %class.PSVirtualSpace, ptr %3, i32 0, i32 3
  %5 = load ptr, ptr %4, align 8
  ret ptr %5
}

; Function Attrs: mustprogress nounwind uwtable
define linkonce_odr hidden noundef zeroext i1 @_ZNK13LogOutputList8is_levelEN8LogLevel4typeE(ptr noundef nonnull align 8 dereferenceable(52) %0, i32 noundef %1) #1 comdat align 2 {
  %3 = alloca ptr, align 8
  %4 = alloca i32, align 4
  store ptr %0, ptr %3, align 8
  store i32 %1, ptr %4, align 4
  %5 = load ptr, ptr %3, align 8
  %6 = getelementptr inbounds %class.LogOutputList, ptr %5, i32 0, i32 0
  %7 = load i32, ptr %4, align 4
  %8 = zext i32 %7 to i64
  %9 = getelementptr inbounds [6 x ptr], ptr %6, i64 0, i64 %8
  %10 = load volatile ptr, ptr %9, align 8
  %11 = icmp ne ptr %10, null
  ret i1 %11
}

; Function Attrs: mustprogress nounwind uwtable
define linkonce_odr hidden void @_ZN8GCLocker21verify_critical_countEv() #1 comdat align 2 {
  ret void
}

; Function Attrs: mustprogress nounwind uwtable
define linkonce_odr hidden noundef i64 @_ZNK14PSVirtualSpace14committed_sizeEv(ptr noundef nonnull align 8 dereferenceable(49) %0) #1 comdat align 2 {
  %2 = alloca ptr, align 8
  store ptr %0, ptr %2, align 8
  %3 = load ptr, ptr %2, align 8
  %4 = call noundef ptr @_ZNK14PSVirtualSpace19committed_high_addrEv(ptr noundef nonnull align 8 dereferenceable(49) %3)
  %5 = call noundef ptr @_ZNK14PSVirtualSpace18committed_low_addrEv(ptr noundef nonnull align 8 dereferenceable(49) %3)
  %6 = call noundef i64 @_Z13pointer_deltaPVKvS0_m(ptr noundef %4, ptr noundef %5, i64 noundef 1)
  ret i64 %6
}

; Function Attrs: mustprogress nounwind uwtable
define linkonce_odr hidden noundef i64 @_ZNK14PSVirtualSpace13reserved_sizeEv(ptr noundef nonnull align 8 dereferenceable(49) %0) #1 comdat align 2 {
  %2 = alloca ptr, align 8
  store ptr %0, ptr %2, align 8
  %3 = load ptr, ptr %2, align 8
  %4 = call noundef ptr @_ZNK14PSVirtualSpace18reserved_high_addrEv(ptr noundef nonnull align 8 dereferenceable(49) %3)
  %5 = call noundef ptr @_ZNK14PSVirtualSpace17reserved_low_addrEv(ptr noundef nonnull align 8 dereferenceable(49) %3)
  %6 = call noundef i64 @_Z13pointer_deltaPVKvS0_m(ptr noundef %4, ptr noundef %5, i64 noundef 1)
  ret i64 %6
}

; Function Attrs: mustprogress nounwind uwtable
define linkonce_odr hidden noundef zeroext i1 @_ZNK9LogTagSet8is_levelEN8LogLevel4typeE(ptr noundef nonnull align 8 dereferenceable(112) %0, i32 noundef %1) #1 comdat align 2 {
  %3 = alloca ptr, align 8
  %4 = alloca i32, align 4
  store ptr %0, ptr %3, align 8
  store i32 %1, ptr %4, align 4
  %5 = load ptr, ptr %3, align 8
  %6 = getelementptr inbounds %class.LogTagSet, ptr %5, i32 0, i32 4
  %7 = load i32, ptr %4, align 4
  %8 = call noundef zeroext i1 @_ZNK13LogOutputList8is_levelEN8LogLevel4typeE(ptr noundef nonnull align 8 dereferenceable(52) %6, i32 noundef %7)
  ret i1 %8
}

; Function Attrs: mustprogress nounwind uwtable
define linkonce_odr hidden noundef nonnull align 8 dereferenceable(112) ptr @_ZN16LogTagSetMappingILN6LogTag4typeE49ELS1_0ELS1_0ELS1_0ELS1_0ELS1_0EE6tagsetEv() #1 comdat align 2 {
  ret ptr @_ZN16LogTagSetMappingILN6LogTag4typeE49ELS1_0ELS1_0ELS1_0ELS1_0ELS1_0EE7_tagsetE
}

; Function Attrs: mustprogress nounwind uwtable
define linkonce_odr hidden noundef zeroext i1 @_ZN8GCLocker18is_active_internalEv() #1 comdat align 2 {
  call void @_ZN8GCLocker21verify_critical_countEv()
  %1 = load volatile i32, ptr @_ZN8GCLocker15_jni_lock_countE, align 4
  %2 = icmp sgt i32 %1, 0
  ret i1 %2
}

; Function Attrs: mustprogress nounwind uwtable
define linkonce_odr hidden noundef zeroext i1 @_ZN8GCLocker8needs_gcEv() #1 comdat align 2 {
  %1 = load volatile i8, ptr @_ZN8GCLocker9_needs_gcE, align 1
  %2 = trunc i8 %1 to i1
  ret i1 %2
}

; Function Attrs: mustprogress nounwind uwtable
define linkonce_odr hidden noundef i64 @_ZNK14PSVirtualSpace16uncommitted_sizeEv(ptr noundef nonnull align 8 dereferenceable(49) %0) #1 comdat align 2 {
  %2 = alloca ptr, align 8
  store ptr %0, ptr %2, align 8
  %3 = load ptr, ptr %2, align 8
  %4 = call noundef i64 @_ZNK14PSVirtualSpace13reserved_sizeEv(ptr noundef nonnull align 8 dereferenceable(49) %3)
  %5 = call noundef i64 @_ZNK14PSVirtualSpace14committed_sizeEv(ptr noundef nonnull align 8 dereferenceable(49) %3)
  %6 = sub i64 %4, %5
  ret i64 %6
}

; Function Attrs: mustprogress nounwind uwtable
define linkonce_odr hidden noundef i64 @_Z12checked_castImmET_T0_(i64 noundef %0) #1 comdat {
  %2 = alloca i64, align 8
  %3 = alloca i64, align 8
  store i64 %0, ptr %2, align 8
  %4 = load i64, ptr %2, align 8
  store i64 %4, ptr %3, align 8
  %5 = load i64, ptr %3, align 8
  ret i64 %5
}

; Function Attrs: mustprogress nounwind uwtable
define internal noundef i64 @_ZL14alignment_maskImTnNSt9enable_ifIXcvbsr3std11is_integralIT_EE5valueEiE4typeELi0EES1_S1_(i64 noundef %0) #1 {
  %2 = alloca i64, align 8
  store i64 %0, ptr %2, align 8
  %3 = load i64, ptr %2, align 8
  %4 = sub i64 %3, 1
  ret i64 %4
}

; Function Attrs: mustprogress nounwind uwtable
define linkonce_odr hidden noundef zeroext i1 @_ZN7LogImplILN6LogTag4typeE49ELS1_0ELS1_0ELS1_0ELS1_0ELS1_0EE8is_levelEN8LogLevel4typeE(i32 noundef %0) #1 comdat align 2 {
  %2 = alloca i32, align 4
  store i32 %0, ptr %2, align 4
  %3 = call noundef nonnull align 8 dereferenceable(112) ptr @_ZN16LogTagSetMappingILN6LogTag4typeE49ELS1_0ELS1_0ELS1_0ELS1_0ELS1_0EE6tagsetEv()
  %4 = load i32, ptr %2, align 4
  %5 = call noundef zeroext i1 @_ZNK9LogTagSet8is_levelEN8LogLevel4typeE(ptr noundef nonnull align 8 dereferenceable(112) %3, i32 noundef %4)
  ret i1 %5
}

; Function Attrs: mustprogress nounwind uwtable
define linkonce_odr hidden noundef zeroext i1 @_ZN8GCLocker22is_active_and_needs_gcEv() #1 comdat align 2 {
  %1 = call noundef zeroext i1 @_ZN8GCLocker8needs_gcEv()
  br i1 %1, label %2, label %4

2:                                                ; preds = %0
  %3 = call noundef zeroext i1 @_ZN8GCLocker18is_active_internalEv()
  br label %4

4:                                                ; preds = %2, %0
  %5 = phi i1 [ false, %0 ], [ %3, %2 ]
  ret i1 %5
}

; Function Attrs: mustprogress nounwind uwtable
define hidden noundef zeroext i1 @_ZN8PSOldGen18expand_to_reservedEv(ptr noundef nonnull align 8 dereferenceable(128) %0) #1 align 2 {
  %2 = alloca ptr, align 8
  %3 = alloca i8, align 1
  %4 = alloca i64, align 8
  store ptr %0, ptr %2, align 8
  %5 = load ptr, ptr %2, align 8
  store i8 0, ptr %3, align 1
  %6 = call noundef ptr @_ZNK8PSOldGen13virtual_spaceEv(ptr noundef nonnull align 8 dereferenceable(128) %5)
  %7 = call noundef i64 @_ZNK14PSVirtualSpace16uncommitted_sizeEv(ptr noundef nonnull align 8 dereferenceable(49) %6)
  store i64 %7, ptr %4, align 8
  %8 = load i64, ptr %4, align 8
  %9 = icmp ugt i64 %8, 0
  br i1 %9, label %10, label %14

10:                                               ; preds = %1
  %11 = load i64, ptr %4, align 8
  %12 = call noundef zeroext i1 @_ZN8PSOldGen9expand_byEm(ptr noundef nonnull align 8 dereferenceable(128) %5, i64 noundef %11)
  %13 = zext i1 %12 to i8
  store i8 %13, ptr %3, align 1
  br label %14

14:                                               ; preds = %10, %1
  %15 = load i8, ptr %3, align 1
  %16 = trunc i8 %15 to i1
  ret i1 %16
}

; Function Attrs: mustprogress nounwind uwtable
define linkonce_odr hidden noundef i64 @_Z10align_downImmTnNSt9enable_ifIXcvbsr3std11is_integralIT_EE5valueEiE4typeELi0EES1_S1_T0_(i64 noundef %0, i64 noundef %1) #1 comdat {
  %3 = alloca i64, align 8
  %4 = alloca i64, align 8
  %5 = alloca i64, align 8
  store i64 %0, ptr %3, align 8
  store i64 %1, ptr %4, align 8
  %6 = load i64, ptr %3, align 8
  %7 = load i64, ptr %4, align 8
  %8 = call noundef i64 @_ZL14alignment_maskImTnNSt9enable_ifIXcvbsr3std11is_integralIT_EE5valueEiE4typeELi0EES1_S1_(i64 noundef %7)
  %9 = xor i64 %8, -1
  %10 = and i64 %6, %9
  store i64 %10, ptr %5, align 8
  %11 = load i64, ptr %5, align 8
  ret i64 %11
}

; Function Attrs: mustprogress nounwind uwtable
define linkonce_odr hidden noundef i64 @_Z4MAX2ImET_S0_S0_(i64 noundef %0, i64 noundef %1) #1 comdat {
  %3 = alloca i64, align 8
  %4 = alloca i64, align 8
  store i64 %0, ptr %3, align 8
  store i64 %1, ptr %4, align 8
  %5 = load i64, ptr %3, align 8
  %6 = load i64, ptr %4, align 8
  %7 = icmp ugt i64 %5, %6
  br i1 %7, label %8, label %10

8:                                                ; preds = %2
  %9 = load i64, ptr %3, align 8
  br label %12

10:                                               ; preds = %2
  %11 = load i64, ptr %4, align 8
  br label %12

12:                                               ; preds = %10, %8
  %13 = phi i64 [ %9, %8 ], [ %11, %10 ]
  ret i64 %13
}

; Function Attrs: mustprogress nounwind uwtable
define linkonce_odr hidden noundef i64 @_Z8align_upImmTnNSt9enable_ifIXcvbsr3std11is_integralIT_EE5valueEiE4typeELi0EES1_S1_T0_(i64 noundef %0, i64 noundef %1) #1 comdat {
  %3 = alloca i64, align 8
  %4 = alloca i64, align 8
  %5 = alloca i64, align 8
  store i64 %0, ptr %3, align 8
  store i64 %1, ptr %4, align 8
  %6 = load i64, ptr %3, align 8
  %7 = load i64, ptr %4, align 8
  %8 = call noundef i64 @_ZL14alignment_maskImTnNSt9enable_ifIXcvbsr3std11is_integralIT_EE5valueEiE4typeELi0EES1_S1_(i64 noundef %7)
  %9 = add i64 %6, %8
  %10 = call noundef i64 @_Z12checked_castImmET_T0_(i64 noundef %9)
  store i64 %10, ptr %5, align 8
  %11 = load i64, ptr %5, align 8
  %12 = load i64, ptr %4, align 8
  %13 = call noundef i64 @_Z10align_downImmTnNSt9enable_ifIXcvbsr3std11is_integralIT_EE5valueEiE4typeELi0EES1_S1_T0_(i64 noundef %11, i64 noundef %12)
  ret i64 %13
}

; Function Attrs: mustprogress nounwind uwtable
define linkonce_odr hidden noundef i64 @_ZNK14PSVirtualSpace9alignmentEv(ptr noundef nonnull align 8 dereferenceable(49) %0) #1 comdat align 2 {
  %2 = alloca ptr, align 8
  store ptr %0, ptr %2, align 8
  %3 = load ptr, ptr %2, align 8
  %4 = getelementptr inbounds %class.PSVirtualSpace, ptr %3, i32 0, i32 1
  %5 = load i64, ptr %4, align 8
  ret i64 %5
}

; Function Attrs: mustprogress nounwind uwtable
define linkonce_odr hidden noundef ptr @_ZNK8PSOldGen13virtual_spaceEv(ptr noundef nonnull align 8 dereferenceable(128) %0) #1 comdat align 2 {
  %2 = alloca ptr, align 8
  store ptr %0, ptr %2, align 8
  %3 = load ptr, ptr %2, align 8
  %4 = getelementptr inbounds %class.PSOldGen, ptr %3, i32 0, i32 1
  %5 = load ptr, ptr %4, align 8
  ret ptr %5
}

; Function Attrs: mustprogress nounwind uwtable
define hidden noundef zeroext i1 @_ZN8PSOldGen6expandEm(ptr noundef nonnull align 8 dereferenceable(128) %0, i64 noundef %1) #1 align 2 {
  %3 = alloca ptr, align 8
  %4 = alloca i64, align 8
  %5 = alloca i64, align 8
  %6 = alloca i64, align 8
  %7 = alloca i64, align 8
  %8 = alloca i8, align 1
  store ptr %0, ptr %3, align 8
  store i64 %1, ptr %4, align 8
  %9 = load ptr, ptr %3, align 8
  %10 = call noundef ptr @_ZNK8PSOldGen13virtual_spaceEv(ptr noundef nonnull align 8 dereferenceable(128) %9)
  %11 = call noundef i64 @_ZNK14PSVirtualSpace9alignmentEv(ptr noundef nonnull align 8 dereferenceable(49) %10)
  store i64 %11, ptr %5, align 8
  %12 = load i64, ptr %4, align 8
  %13 = load i64, ptr %5, align 8
  %14 = call noundef i64 @_Z8align_upImmTnNSt9enable_ifIXcvbsr3std11is_integralIT_EE5valueEiE4typeELi0EES1_S1_T0_(i64 noundef %12, i64 noundef %13)
  store i64 %14, ptr %6, align 8
  %15 = load i64, ptr @MinHeapDeltaBytes, align 8
  %16 = load i64, ptr %5, align 8
  %17 = call noundef i64 @_Z8align_upImmTnNSt9enable_ifIXcvbsr3std11is_integralIT_EE5valueEiE4typeELi0EES1_S1_T0_(i64 noundef %15, i64 noundef %16)
  store i64 %17, ptr %7, align 8
  %18 = load i8, ptr @UseNUMA, align 1
  %19 = trunc i8 %18 to i1
  br i1 %19, label %20, label %26

20:                                               ; preds = %2
  %21 = load i64, ptr %7, align 8
  %22 = load i64, ptr %5, align 8
  %23 = call noundef i64 @_ZN2os19numa_get_groups_numEv()
  %24 = mul i64 %22, %23
  %25 = call noundef i64 @_Z4MAX2ImET_S0_S0_(i64 noundef %21, i64 noundef %24)
  store i64 %25, ptr %7, align 8
  br label %26

26:                                               ; preds = %20, %2
  %27 = load i64, ptr %6, align 8
  %28 = icmp eq i64 %27, 0
  br i1 %28, label %29, label %33

29:                                               ; preds = %26
  %30 = load i64, ptr %4, align 8
  %31 = load i64, ptr %5, align 8
  %32 = call noundef i64 @_Z10align_downImmTnNSt9enable_ifIXcvbsr3std11is_integralIT_EE5valueEiE4typeELi0EES1_S1_T0_(i64 noundef %30, i64 noundef %31)
  store i64 %32, ptr %6, align 8
  br label %33

33:                                               ; preds = %29, %26
  store i8 0, ptr %8, align 1
  %34 = load i64, ptr %7, align 8
  %35 = load i64, ptr %6, align 8
  %36 = icmp ugt i64 %34, %35
  br i1 %36, label %37, label %41

37:                                               ; preds = %33
  %38 = load i64, ptr %7, align 8
  %39 = call noundef zeroext i1 @_ZN8PSOldGen9expand_byEm(ptr noundef nonnull align 8 dereferenceable(128) %9, i64 noundef %38)
  %40 = zext i1 %39 to i8
  store i8 %40, ptr %8, align 1
  br label %41

41:                                               ; preds = %37, %33
  %42 = load i8, ptr %8, align 1
  %43 = trunc i8 %42 to i1
  br i1 %43, label %48, label %44

44:                                               ; preds = %41
  %45 = load i64, ptr %6, align 8
  %46 = call noundef zeroext i1 @_ZN8PSOldGen9expand_byEm(ptr noundef nonnull align 8 dereferenceable(128) %9, i64 noundef %45)
  %47 = zext i1 %46 to i8
  store i8 %47, ptr %8, align 1
  br label %48

48:                                               ; preds = %44, %41
  %49 = load i8, ptr %8, align 1
  %50 = trunc i8 %49 to i1
  br i1 %50, label %54, label %51

51:                                               ; preds = %48
  %52 = call noundef zeroext i1 @_ZN8PSOldGen18expand_to_reservedEv(ptr noundef nonnull align 8 dereferenceable(128) %9)
  %53 = zext i1 %52 to i8
  store i8 %53, ptr %8, align 1
  br label %54

54:                                               ; preds = %51, %48
  %55 = load i8, ptr %8, align 1
  %56 = trunc i8 %55 to i1
  br i1 %56, label %57, label %64

57:                                               ; preds = %54
  %58 = call noundef zeroext i1 @_ZN8GCLocker22is_active_and_needs_gcEv()
  br i1 %58, label %59, label %64

59:                                               ; preds = %57
  %60 = call noundef zeroext i1 @_ZN7LogImplILN6LogTag4typeE49ELS1_0ELS1_0ELS1_0ELS1_0ELS1_0EE8is_levelEN8LogLevel4typeE(i32 noundef 2)
  br i1 %60, label %62, label %61

61:                                               ; preds = %59
  br label %63

62:                                               ; preds = %59
  call void (ptr, ...) @_ZN7LogImplILN6LogTag4typeE49ELS1_0ELS1_0ELS1_0ELS1_0ELS1_0EE5writeILN8LogLevel4typeE2EEEvPKcz(ptr noundef @.str.8)
  br label %63

63:                                               ; preds = %62, %61
  br label %64

64:                                               ; preds = %63, %57, %54
  %65 = load i8, ptr %8, align 1
  %66 = trunc i8 %65 to i1
  ret i1 %66
}