; Function Attrs: mustprogress nounwind uwtable
define hidden noundef zeroext i1 @_ZN8PSOldGen6expandEm(ptr noundef nonnull align 8 dereferenceable(128) %0, i64 noundef %1) local_unnamed_addr #0 align 2 {
  %3 = getelementptr inbounds i8, ptr %0, i64 8
  %4 = load ptr, ptr %3, align 8
  %5 = getelementptr inbounds i8, ptr %4, i64 8
  %6 = load i64, ptr %5, align 8
  %7 = add i64 %6, -1
  %8 = add i64 %7, %1
  %9 = sub i64 0, %6
  %10 = and i64 %8, %9
  %11 = load i64, ptr @MinHeapDeltaBytes, align 8
  %12 = add i64 %7, %11
  %13 = and i64 %12, %9
  %14 = load i8, ptr @UseNUMA, align 1
  %15 = trunc i8 %14 to i1
  br i1 %15, label %16, label %20

16:                                               ; preds = %2
  %17 = tail call noundef i64 @_ZN2os19numa_get_groups_numEv() #7
  %18 = mul i64 %17, %6
  %19 = tail call noundef i64 @llvm.umax.i64(i64 %13, i64 %18)
  br label %20

20:                                               ; preds = %16, %2
  %.016 = phi i64 [ %19, %16 ], [ %13, %2 ]
  %21 = icmp eq i64 %10, 0
  %22 = and i64 %9, %1
  %spec.select = select i1 %21, i64 %22, i64 %10
  %23 = icmp ugt i64 %.016, %spec.select
  br i1 %23, label %24, label %26

24:                                               ; preds = %20
  %25 = tail call noundef zeroext i1 @_ZN8PSOldGen9expand_byEm(ptr noundef nonnull align 8 dereferenceable(128) %0, i64 noundef %.016)
  br i1 %25, label %_ZN8PSOldGen18expand_to_reservedEv.exit.thread, label %26

26:                                               ; preds = %24, %20
  %27 = tail call noundef zeroext i1 @_ZN8PSOldGen9expand_byEm(ptr noundef nonnull align 8 dereferenceable(128) %0, i64 noundef %spec.select)
  br i1 %27, label %_ZN8PSOldGen18expand_to_reservedEv.exit.thread, label %28

28:                                               ; preds = %26
  %29 = load ptr, ptr %3, align 8
  %30 = getelementptr inbounds i8, ptr %29, i64 24
  %31 = load ptr, ptr %30, align 8
  %32 = getelementptr inbounds i8, ptr %29, i64 16
  %33 = load ptr, ptr %32, align 8
  %34 = ptrtoint ptr %31 to i64
  %35 = ptrtoint ptr %33 to i64
  %36 = getelementptr inbounds i8, ptr %29, i64 40
  %37 = load ptr, ptr %36, align 8
  %38 = getelementptr inbounds i8, ptr %29, i64 32
  %39 = load ptr, ptr %38, align 8
  %40 = ptrtoint ptr %37 to i64
  %41 = ptrtoint ptr %39 to i64
  %42 = add i64 %35, %40
  %43 = sub i64 %34, %42
  %44 = add i64 %43, %41
  %.not.i = icmp eq i64 %44, 0
  br i1 %.not.i, label %_ZN8GCLocker22is_active_and_needs_gcEv.exit.thread, label %_ZN8PSOldGen18expand_to_reservedEv.exit

_ZN8PSOldGen18expand_to_reservedEv.exit:          ; preds = %28
  %45 = tail call noundef zeroext i1 @_ZN8PSOldGen9expand_byEm(ptr noundef nonnull align 8 dereferenceable(128) %0, i64 noundef %44)
  br i1 %45, label %_ZN8PSOldGen18expand_to_reservedEv.exit.thread, label %_ZN8GCLocker22is_active_and_needs_gcEv.exit.thread

_ZN8PSOldGen18expand_to_reservedEv.exit.thread:   ; preds = %24, %26, %_ZN8PSOldGen18expand_to_reservedEv.exit
  %46 = load volatile i8, ptr @_ZN8GCLocker9_needs_gcE, align 1
  %47 = trunc i8 %46 to i1
  br i1 %47, label %_ZN8GCLocker22is_active_and_needs_gcEv.exit, label %_ZN8GCLocker22is_active_and_needs_gcEv.exit.thread

_ZN8GCLocker22is_active_and_needs_gcEv.exit:      ; preds = %_ZN8PSOldGen18expand_to_reservedEv.exit.thread
  %48 = load volatile i32, ptr @_ZN8GCLocker15_jni_lock_countE, align 4
  %49 = icmp sgt i32 %48, 0
  br i1 %49, label %50, label %_ZN8GCLocker22is_active_and_needs_gcEv.exit.thread

50:                                               ; preds = %_ZN8GCLocker22is_active_and_needs_gcEv.exit
  %51 = load volatile ptr, ptr getelementptr inbounds (i8, ptr @_ZN16LogTagSetMappingILN6LogTag4typeE49ELS1_0ELS1_0ELS1_0ELS1_0ELS1_0EE7_tagsetE, i64 56), align 8
  %.not = icmp eq ptr %51, null
  br i1 %.not, label %_ZN8GCLocker22is_active_and_needs_gcEv.exit.thread, label %52

52:                                               ; preds = %50
  tail call void (ptr, ...) @_ZN7LogImplILN6LogTag4typeE49ELS1_0ELS1_0ELS1_0ELS1_0ELS1_0EE5writeILN8LogLevel4typeE2EEEvPKcz(ptr noundef nonnull @.str.8)
  br label %_ZN8GCLocker22is_active_and_needs_gcEv.exit.thread

_ZN8GCLocker22is_active_and_needs_gcEv.exit.thread: ; preds = %28, %_ZN8PSOldGen18expand_to_reservedEv.exit.thread, %52, %50, %_ZN8GCLocker22is_active_and_needs_gcEv.exit, %_ZN8PSOldGen18expand_to_reservedEv.exit
  %.225 = phi i1 [ true, %_ZN8PSOldGen18expand_to_reservedEv.exit.thread ], [ true, %52 ], [ true, %50 ], [ true, %_ZN8GCLocker22is_active_and_needs_gcEv.exit ], [ false, %_ZN8PSOldGen18expand_to_reservedEv.exit ], [ false, %28 ]
  ret i1 %.225
}